; Function Attrs: mustprogress uwtable
define zeroext i1 @pkpy_is_none(ptr noundef %0, i32 noundef %1) local_unnamed_addr #4 personality ptr @__gxx_personality_v0 {
  %3 = alloca ptr, align 8
  %4 = alloca ptr, align 8
  %5 = getelementptr inbounds nuw i8, ptr %0, i64 264488
  %6 = load ptr, ptr %5, align 8
  %.not = icmp eq ptr %6, null
  br i1 %.not, label %7, label %44

7:                                                ; preds = %2
  %8 = invoke fastcc noundef ptr @_ZL10stack_itemPN4pkpy2VMEi(ptr noundef nonnull %0, i32 noundef %1)
          to label %9 unwind label %13

9:                                                ; preds = %7
  %10 = getelementptr inbounds nuw i8, ptr %0, i64 264520
  %11 = load ptr, ptr %10, align 8
  %12 = icmp eq ptr %8, %11
  br label %44

13:                                               ; preds = %7
  %14 = landingpad { ptr, i32 }
          catch ptr @_ZTIN4pkpy9ExceptionE
          catch ptr @_ZTISt9exception
  %15 = extractvalue { ptr, i32 } %14, 0
  %16 = extractvalue { ptr, i32 } %14, 1
  %17 = tail call i32 @llvm.eh.typeid.for.p0(ptr nonnull @_ZTIN4pkpy9ExceptionE) #32
  %18 = icmp eq i32 %16, %17
  br i1 %18, label %19, label %23

19:                                               ; preds = %13
  %20 = tail call ptr @__cxa_begin_catch(ptr %15) #32
  %21 = invoke noundef ptr @_ZNK4pkpy9Exception4selfEv(ptr noundef nonnull align 8 dereferenceable(88) %20)
          to label %22 unwind label %42

22:                                               ; preds = %19
  store ptr %21, ptr %5, align 8
  tail call void @__cxa_end_catch()
  br label %44

23:                                               ; preds = %13
  %24 = tail call i32 @llvm.eh.typeid.for.p0(ptr nonnull @_ZTISt9exception) #32
  %25 = icmp eq i32 %16, %24
  br i1 %25, label %26, label %45

26:                                               ; preds = %23
  %27 = tail call ptr @__cxa_begin_catch(ptr %15) #32
  %28 = getelementptr inbounds nuw i8, ptr %0, i64 264328
  %29 = load ptr, ptr %28, align 8
  %30 = getelementptr inbounds nuw i8, ptr %29, i64 4920
  %31 = load ptr, ptr %30, align 8
  %32 = load ptr, ptr %27, align 8
  %33 = getelementptr inbounds nuw i8, ptr %32, i64 16
  %34 = load ptr, ptr %33, align 8
  %35 = tail call noundef ptr %34(ptr noundef nonnull align 8 dereferenceable(8) %27) #32
  store ptr %35, ptr %4, align 8
  %36 = invoke noundef ptr @_ZN4pkpy6py_varIPKcEEPNS_8PyObjectEPNS_2VMEOT_(ptr noundef nonnull %0, ptr noundef nonnull align 8 dereferenceable(8) %4)
          to label %37 unwind label %40

37:                                               ; preds = %26
  store ptr %36, ptr %3, align 8
  %38 = invoke noundef ptr @_ZN4pkpy2VM4callIJPNS_8PyObjectEEEES3_S3_DpOT_(ptr noundef nonnull align 8 dereferenceable(264913) %0, ptr noundef %31, ptr noundef nonnull align 8 dereferenceable(8) %3)
          to label %39 unwind label %40

39:                                               ; preds = %37
  store ptr %38, ptr %5, align 8
  call void @__cxa_end_catch()
  br label %44

40:                                               ; preds = %37, %26
  %41 = landingpad { ptr, i32 }
          cleanup
  invoke void @__cxa_end_catch()
          to label %45 unwind label %46

42:                                               ; preds = %19
  %43 = landingpad { ptr, i32 }
          cleanup
  invoke void @__cxa_end_catch()
          to label %45 unwind label %46

44:                                               ; preds = %2, %39, %22, %9
  %.0 = phi i1 [ %12, %9 ], [ false, %22 ], [ false, %39 ], [ false, %2 ]
  ret i1 %.0

45:                                               ; preds = %42, %40, %23
  %.merged = phi { ptr, i32 } [ %43, %42 ], [ %41, %40 ], [ %14, %23 ]
  resume { ptr, i32 } %.merged

46:                                               ; preds = %42, %40
  %47 = landingpad { ptr, i32 }
          catch ptr null
  %48 = extractvalue { ptr, i32 } %47, 0
  call void @__clang_call_terminate(ptr %48) #29
  unreachable
}